(dp0
S'capital-gain'
p1
(dp2
S'True'
p3
(dp4
S'education-num'
p5
(dp6
g3
(dp7
S'marital-status'
p8
(dp9
S' Separated'
p10
(dp11
S'occupation'
p12
(dp13
S' Craft-repair'
p14
S' >50K'
p15
sS' Other-service'
p16
S' <=50K'
p17
sS' Prof-specialty'
p18
(dp19
S'workclass'
p20
(dp21
S' Self-emp-inc'
p22
g15
sS' Private'
p23
g15
sS' Local-gov'
p24
g17
sS' Federal-gov'
p25
g15
sS'majorClass'
p26
g15
sssg26
g15
sS' Exec-managerial'
p27
g15
sS' Adm-clerical'
p28
g17
sS' Tech-support'
p29
(dp30
S'education'
p31
(dp32
S' Assoc-acdm'
p33
g17
sS' Masters'
p34
g15
sg26
g15
sssS' ?'
p35
g17
sssS' Divorced'
p36
(dp37
S'hours-per-week'
p38
(dp39
g3
(dp40
S'race'
p41
(dp42
S' Asian-Pac-Islander'
p43
g15
sS' Black'
p44
g15
sS' White'
p45
g15
sg26
g15
sssS'False'
p46
(dp47
S'native-country'
p48
(dp49
S' United-States'
p50
g17
sS' Germany'
p51
g17
sS' ?'
p52
g17
sS' England'
p53
g15
sg26
g17
sssg26
g15
sssS' Married-spouse-absent'
p54
(dp55
S'age'
p56
(dp57
g3
(dp58
g38
(dp59
g46
g17
sg3
g15
sg26
g15
sssg46
g17
sg26
g15
sssS' Widowed'
p60
(dp61
g41
(dp62
g45
(dp63
S'sex'
p64
(dp65
S' Male'
p66
g15
sS' Female'
p67
g17
sg26
g15
sssg44
g17
sg26
g15
sssg26
g15
sS' Married-AF-spouse'
p68
g15
sS' Never-married'
p69
(dp70
g48
(dp71
S' Canada'
p72
g15
sg51
(dp73
S'fnlwgt'
p74
(dp75
g3
g17
sg46
g15
sg26
g15
sssg50
(dp76
g38
(dp77
g46
g17
sg3
g15
sg26
g15
sssS' Cuba'
p78
g17
sS' Italy'
p79
g15
sS' India'
p80
g17
sg53
g15
sS' Philippines'
p81
g15
sS' France'
p82
(dp83
g20
(dp84
g23
g17
sg22
g15
sg26
g15
sssg26
g15
sS' Greece'
p85
g15
sS' Cambodia'
p86
g17
sS' Japan'
p87
g15
sS' Taiwan'
p88
g17
sS' Vietnam'
p89
g17
sg52
(dp90
g64
(dp91
g66
g15
sg67
g17
sg26
g17
sssssS' Married-civ-spouse'
p92
(dp93
g48
(dp94
S' Iran'
p95
g15
sS' Puerto-Rico'
p96
g15
sS' El-Salvador'
p97
(dp98
g56
(dp99
g3
g15
sg46
g17
sg26
g15
sssg50
(dp100
g41
(dp101
S' Amer-Indian-Eskimo'
p102
g15
sg43
g15
sg26
g15
sS' Other'
p103
g15
sg44
g15
sg45
g15
sssS' China'
p104
(dp105
g20
(dp106
S' Self-emp-not-inc'
p107
g15
sS' State-gov'
p108
g17
sg26
g15
sssg51
(dp109
g56
(dp110
g3
g15
sg46
g17
sg26
g15
sssS' Hungary'
p111
g17
sS' Poland'
p112
g15
sg81
g15
sg26
g15
sg89
(dp113
g74
(dp114
g46
g17
sg3
g15
sg26
g17
sssS' South'
p115
(dp116
g74
(dp117
g3
g15
sg46
g15
sg26
g15
sssS' Mexico'
p118
g15
sg53
g15
sS' Jamaica'
p119
g15
sg80
(dp120
g38
(dp121
g46
g15
sg3
g15
sg26
g15
sssS' Yugoslavia'
p122
g15
sg85
g15
sg87
(dp123
g74
(dp124
g3
g15
sg46
g15
sg26
g15
sssg88
g15
sg52
(dp125
g20
(dp126
g23
g15
sg22
g15
sg108
g15
sg24
g15
sg26
g15
sg25
g15
sS' ?'
p127
g15
sssg72
(dp128
S'relationship'
p129
(dp130
S' Husband'
p131
g15
sS' Wife'
p132
g17
sg26
g15
sssg79
g15
sssssg46
(dp133
g8
(dp134
g10
(dp135
g12
(dp136
S' Farming-fishing'
p137
g17
sS' Protective-serv'
p138
g17
sg14
(dp139
g56
(dp140
g3
g15
sg46
g17
sg26
g15
sssg16
g17
sS' Transport-moving'
p141
(dp142
g41
(dp143
g45
g15
sg44
g17
sg26
g17
sssg18
(dp144
g31
(dp145
S' 12th'
p146
g17
sS' Some-college'
p147
g15
sS' HS-grad'
p148
g15
sg26
g15
sssS' Sales'
p149
(dp150
g56
(dp151
g3
g15
sg46
g17
sg26
g15
sssg26
g17
sg27
(dp152
g41
(dp153
g45
g15
sg44
g17
sg26
g15
sssg35
g17
sS' Handlers-cleaners'
p154
g17
sg28
g17
sg29
g17
sS' Machine-op-inspct'
p155
g17
sssg36
(dp156
g48
(dp157
g118
g17
sg78
g15
sg96
g15
sg53
g17
sg26
g17
sg50
(dp158
g12
(dp159
g155
g17
sg14
g17
sg16
g17
sg141
g17
sg18
g17
sg149
g17
sg26
g17
sg27
g17
sg35
g17
sg154
g17
sg28
g17
sg29
g17
sg137
g15
sssS' Ireland'
p160
g17
sg87
g17
sg51
g17
sg52
g15
sssg54
(dp161
g64
(dp162
g66
g17
sg67
(dp163
g129
(dp164
S' Unmarried'
p165
g17
sS' Not-in-family'
p166
g15
sg26
g17
sssg26
g17
sssg60
(dp167
g38
(dp168
g46
(dp169
g48
(dp170
g50
g17
sg79
g17
sg53
g17
sg26
g17
sS' Ecuador'
p171
g17
sg111
g17
sg51
g15
sg52
g17
sssg3
(dp172
g12
(dp173
g27
g17
sg14
g15
sg35
g17
sg149
g15
sg26
g15
sssg26
g17
sssg26
g17
sg68
g17
sg69
(dp174
g48
(dp175
S' Dominican-Republic'
p176
(dp177
g20
(dp178
g107
g15
sg23
g17
sg26
g15
sssg115
g15
sg171
g17
sg96
g17
sS' Peru'
p179
g17
sg97
g17
sg26
g17
sS' Guatemala'
p180
g17
sg50
(dp181
g20
(dp182
g23
g17
sg22
g15
sg108
g17
sg24
g17
sS' Without-pay'
p183
g17
sg26
g17
sg107
g15
sg25
g17
sg127
g17
sssg104
g15
sg80
g17
sg89
g15
sg52
g17
sS' Nicaragua'
p184
g17
sssg92
(dp185
g48
(dp186
S' Columbia'
p187
g17
sg78
(dp188
g31
(dp189
S' 7th-8th'
p190
g17
sg147
g15
sg26
g15
sssg96
(dp191
g20
(dp192
g23
g15
sg127
g17
sg26
g15
sssg97
(dp193
g74
(dp194
g46
g15
sg3
g17
sg26
g17
sssg180
(dp195
g20
(dp196
g23
g17
sg25
g15
sg26
g15
sssg50
(dp197
g31
(dp198
g146
g15
sg26
g15
sg190
g17
sS' 9th'
p199
g17
sS' 5th-6th'
p200
g17
sg147
g15
sS' 10th'
p201
g17
sS' 11th'
p202
g15
sg148
g15
sssg104
g17
sg51
g15
sg85
(dp203
g31
(dp204
g190
g15
sg148
g17
sg26
g17
sssg112
(dp205
g12
(dp206
g29
g17
sg14
g15
sg141
g15
sg155
g17
sg26
g15
sssg81
(dp207
g56
(dp208
g3
g15
sg46
g17
sg26
g15
sssg26
g15
sg89
g17
sg118
(dp209
g20
(dp210
g23
g17
sg107
g15
sg127
g17
sg26
g17
sssS' Portugal'
p211
g17
sg53
(dp212
g74
(dp213
g3
g17
sg46
g15
sg26
g15
sssg119
g17
sg111
g15
sg87
(dp214
g56
(dp215
g3
g15
sg46
g17
sg26
g15
sssg52
(dp216
g38
(dp217
g3
g15
sg46
g17
sg26
g15
sssg72
(dp218
g56
(dp219
g46
g17
sg3
g15
sg26
g15
sssg79
(dp220
g31
(dp221
S' 1st-4th'
p222
g15
sg148
g17
sg26
g17
sssS' Scotland'
p223
g15
sg86
g17
sg171
g15
sS' Laos'
p224
g17
sg160
g17
sssssg26
g15
sssg46
(dp225
g8
(dp226
g10
(dp227
g5
(dp228
g46
(dp229
g38
(dp230
g46
(dp231
S'capital-loss'
p232
(dp233
g46
g17
sg3
g17
sg26
g17
sssg3
(dp234
g232
(dp235
g46
g17
sg3
g17
sg26
g17
sssg26
g17
sssg3
(dp236
g232
(dp237
g46
(dp238
g31
(dp239
S' Prof-school'
p240
g15
sS' Assoc-voc'
p241
g17
sg34
g17
sg26
g17
sg33
g17
sS' Bachelors'
p242
g17
sS' Doctorate'
p243
g15
sssg3
(dp244
g56
(dp245
g46
g15
sg3
g17
sg26
g15
sssg26
g17
sssg26
g17
sssg36
(dp246
g38
(dp247
g46
(dp248
g5
(dp249
g46
(dp250
g48
(dp251
g95
g17
sg78
g17
sg96
g17
sg97
g17
sg180
g17
sg50
g17
sg104
g17
sS' Haiti'
p252
g17
sg51
g17
sg187
g17
sg176
g17
sg112
g17
sg81
g17
sg26
g17
sS' Trinadad&Tobago'
p253
g17
sg89
g17
sg115
g17
sS' Honduras'
p254
g17
sg118
g17
sg211
g17
sg53
g17
sg119
g17
sg122
g17
sg87
g17
sg52
g17
sg184
g17
sg72
g17
sg79
g17
sg223
g17
sg82
g17
sg171
g17
sg179
g17
sg160
g17
sssg3
(dp255
g48
(dp256
g95
g17
sg78
g17
sg96
g17
sS' Outlying-US(Guam-USVI-etc)'
p257
g17
sg50
g17
sg104
g17
sg51
g17
sg187
g17
sg176
g17
sg112
g17
sg81
g17
sg26
g17
sg115
g17
sg254
g17
sg118
g15
sg211
g17
sg53
g17
sg119
g17
sg111
g15
sg88
g17
sg52
g17
sg72
g17
sg82
g17
sg179
g17
sg160
g17
sssg26
g17
sssg3
(dp258
g5
(dp259
g3
(dp260
g48
(dp261
g72
g17
sg51
g17
sg95
g17
sg53
g15
sg82
g17
sg26
g17
sg52
g17
sg97
g17
sg50
g17
sS' Thailand'
p262
g17
sg252
g17
sg87
g15
sg80
g15
sg115
g15
sg187
g17
sssg46
(dp263
g48
(dp264
g95
g17
sg78
g17
sg96
g17
sg257
g17
sg50
g17
sg104
g17
sg51
g17
sg176
g17
sg112
g17
sg26
g17
sg89
g17
sg115
g15
sg118
g17
sg211
g17
sg53
g17
sg85
g17
sg87
g17
sg52
g17
sg72
g17
sg223
g17
sg82
g17
sg179
g17
sssg26
g17
sssg26
g17
sssg54
(dp265
g232
(dp266
g46
(dp267
g56
(dp268
g3
(dp269
g48
(dp270
g95
g17
sg78
g17
sg96
g17
sg97
g17
sg180
g17
sg50
g17
sg104
g17
sg262
g17
sg252
g17
sg187
g17
sg176
g17
sg112
g17
sg81
g17
sg26
g17
sg89
g17
sg115
g17
sg254
g17
sg118
g17
sg119
g17
sg80
g17
sg87
g15
sg52
g17
sg72
g17
sg79
g15
sg224
g17
sg160
g17
sssg46
(dp271
g38
(dp272
g46
g17
sg3
g17
sg26
g17
sssg26
g17
sssg3
(dp273
g38
(dp274
g3
(dp275
g12
(dp276
g14
g15
sg141
g15
sg149
g15
sg26
g15
sg27
g17
sg154
g17
sssg46
g17
sg26
g17
sssg26
g17
sssg60
(dp277
g64
(dp278
g66
(dp279
g5
(dp280
g3
(dp281
g232
(dp282
g46
g17
sg3
g15
sg26
g17
sssg46
(dp283
g232
(dp284
g46
g17
sg3
g17
sg26
g17
sssg26
g17
sssg67
(dp285
g48
(dp286
g187
g17
sg78
g17
sg96
g17
sg257
g17
sg97
g17
sg180
g17
sg50
(dp287
g232
(dp288
g46
g17
sg3
g17
sg26
g17
sssg104
g17
sg262
g17
sg252
g17
sg51
g17
sg95
g17
sg111
g17
sg176
g17
sg112
(dp289
g5
(dp290
g46
g17
sg3
g15
sg26
g17
sssg81
g17
sg26
g17
sg115
g17
sg118
g17
sg211
g17
sg53
g17
sg119
g17
sg80
(dp291
g56
(dp292
g3
g15
sg46
g17
sg26
g15
sssg85
g15
sg87
g17
sg52
(dp293
g20
(dp294
g23
g17
sg107
g15
sg127
g17
sg22
g17
sg26
g17
sssg184
g17
sg72
g17
sg79
g17
sssg26
g17
sssg26
g17
sg68
(dp295
g41
(dp296
g45
(dp297
g31
(dp298
g241
g15
sg26
g17
sg33
g17
sg242
g15
sg147
(dp299
g74
(dp300
g46
g17
sg3
g15
sg26
g15
sssg148
(dp301
g74
(dp302
g3
g17
sg46
g17
sg26
g17
sssssg44
g15
sg26
g17
sssg69
(dp303
g5
(dp304
g3
(dp305
g56
(dp306
g46
(dp307
g38
(dp308
g46
g17
sg3
g17
sg26
g17
sssg3
(dp309
g48
(dp310
g187
g17
sg78
g17
sg96
g17
sg257
g17
sg50
g17
sg104
g17
sg262
g17
sg51
g17
sg95
g17
sg176
g17
sg112
g17
sg81
g17
sg26
g17
sg253
g17
sg89
g17
sg118
g17
sg211
g17
sg53
g17
sg80
g17
sg87
g15
sg52
g17
sg72
g17
sg79
g15
sg82
g17
sg179
g17
sssg26
g17
sssg46
(dp311
g232
(dp312
g46
(dp313
g38
(dp314
g46
g17
sg3
g17
sg26
g17
sssg3
(dp315
g56
(dp316
g46
g17
sg3
g17
sg26
g17
sssg26
g17
sssg26
g17
sssg92
(dp317
g5
(dp318
g3
(dp319
g232
(dp320
g46
(dp321
g12
(dp322
g155
g17
sS' Priv-house-serv'
p323
g17
sg14
g17
sg16
g17
sg141
g17
sg18
g15
sg149
g15
sg26
g15
sg27
g15
sg154
g17
sg138
g15
sg28
g17
sg29
g15
sg35
g17
sg137
g17
sssg3
(dp324
g48
(dp325
g85
g15
sS' Hong'
p326
g15
sg254
g15
sg118
g17
sg51
g15
sg96
g15
sg53
g15
sg81
g15
sg80
g15
sg26
g15
sg78
g15
sg52
g15
sg252
g17
sg50
g15
sg104
g15
sg160
g15
sg87
g15
sg88
g15
sg115
g15
sg179
g15
sg95
g17
sssg26
g15
sssg46
(dp327
g232
(dp328
g46
(dp329
g31
(dp330
g222
g17
sg146
g17
sg26
g17
sg190
g17
sg199
g17
sg200
g17
sg147
g17
sg201
g17
sg202
g17
sg148
g17
sS' Preschool'
p331
g17
sssg3
(dp332
g48
(dp333
g72
g15
sg78
g15
sg118
g17
sg79
g15
sg96
g17
sg50
g15
sg112
g17
sg81
g15
sg97
g17
sg26
g15
sg52
g15
sg85
g17
sg104
g17
sg252
g17
sg89
g17
sg184
g15
sg253
g15
sg115
g15
sg95
g15
sssg26
g17
sssg26
g17
sssssg26
g17
ss.