(dp0
S'capital-gain'
p1
(dp2
S'True'
p3
(dp4
S'education-num'
p5
(dp6
g3
(dp7
S'marital-status'
p8
(dp9
S' Separated'
p10
(dp11
S'occupation'
p12
(dp13
S' Craft-repair'
p14
S' >50K'
p15
sS' Other-service'
p16
S' <=50K'
p17
sS' Prof-specialty'
p18
(dp19
S'workclass'
p20
(dp21
S' Self-emp-inc'
p22
g15
sS' Local-gov'
p23
g17
sS' Federal-gov'
p24
g15
sS' Private'
p25
g15
sssS' Exec-managerial'
p26
g15
sS' Adm-clerical'
p27
g17
sS' Tech-support'
p28
(dp29
S'education'
p30
(dp31
S' Assoc-acdm'
p32
g17
sS' Masters'
p33
g15
sssS' ?'
p34
g17
sssS' Divorced'
p35
(dp36
S'hours-per-week'
p37
(dp38
g3
(dp39
S'race'
p40
(dp41
S' Asian-Pac-Islander'
p42
g15
sS' Black'
p43
g15
sS' White'
p44
g15
sssS'False'
p45
(dp46
S'native-country'
p47
(dp48
S' United-States'
p49
g17
sS' Germany'
p50
g17
sS' ?'
p51
g17
sS' England'
p52
g15
sssssS' Married-spouse-absent'
p53
(dp54
S'age'
p55
(dp56
g3
(dp57
g37
(dp58
g45
g17
sg3
g15
sssg45
g17
sssS' Widowed'
p59
(dp60
g40
(dp61
g44
(dp62
S'sex'
p63
(dp64
S' Male'
p65
g15
sS' Female'
p66
g17
sssg43
g17
sssS' Married-AF-spouse'
p67
g15
sS' Never-married'
p68
(dp69
g47
(dp70
S' Canada'
p71
g15
sS' Taiwan'
p72
g17
sg49
(dp73
g37
(dp74
g45
g17
sg3
g15
sssS' Cuba'
p75
g17
sS' Italy'
p76
g15
sg52
g15
sS' Philippines'
p77
g15
sS' France'
p78
(dp79
g20
(dp80
g25
g17
sg22
g15
sssS' Cambodia'
p81
g17
sS' Greece'
p82
g15
sS' India'
p83
g17
sS' Japan'
p84
g15
sg50
(dp85
S'fnlwgt'
p86
(dp87
g3
g17
sg45
g15
sssS' Vietnam'
p88
g17
sg51
(dp89
g63
(dp90
g65
g15
sg66
g17
sssssS' Married-civ-spouse'
p91
(dp92
g47
(dp93
S' Iran'
p94
g15
sS' Puerto-Rico'
p95
g15
sS' El-Salvador'
p96
(dp97
g55
(dp98
g3
g15
sg45
g17
sssg49
(dp99
g40
(dp100
S' Amer-Indian-Eskimo'
p101
g15
sg42
g15
sg43
g15
sS' Other'
p102
g15
sg44
g15
sssS' China'
p103
(dp104
g20
(dp105
S' Self-emp-not-inc'
p106
g15
sS' State-gov'
p107
g17
sssg50
(dp108
g55
(dp109
g3
g15
sg45
g17
sssS' Hungary'
p110
g17
sS' Poland'
p111
g15
sg77
g15
sg88
(dp112
g86
(dp113
g45
g17
sg3
g15
sssS' South'
p114
(dp115
g86
(dp116
g3
g15
sg45
g15
sssS' Mexico'
p117
g15
sg52
g15
sS' Jamaica'
p118
g15
sg83
(dp119
g37
(dp120
g45
g15
sg3
g15
sssS' Yugoslavia'
p121
g15
sg82
g15
sg84
(dp122
g86
(dp123
g3
g15
sg45
g15
sssg72
g15
sg51
(dp124
g20
(dp125
g25
g15
sg22
g15
sg107
g15
sg23
g15
sg24
g15
sS' ?'
p126
g15
sssg71
(dp127
S'relationship'
p128
(dp129
S' Husband'
p130
g15
sS' Wife'
p131
g17
sssg76
g15
sssssg45
(dp132
g8
(dp133
g10
(dp134
g12
(dp135
S' Farming-fishing'
p136
g17
sg14
(dp137
g55
(dp138
g3
g15
sg45
g17
sssg16
g17
sS' Transport-moving'
p139
(dp140
g40
(dp141
g44
g15
sg43
g17
sssg18
(dp142
g30
(dp143
S' 12th'
p144
g17
sS' Some-college'
p145
g15
sS' HS-grad'
p146
g15
sssS' Sales'
p147
(dp148
g55
(dp149
g3
g15
sg45
g17
sssg34
g17
sg26
(dp150
g40
(dp151
g44
g15
sg43
g17
sssS' Handlers-cleaners'
p152
g17
sS' Protective-serv'
p153
g17
sg27
g17
sg28
g17
sS' Machine-op-inspct'
p154
g17
sssg35
(dp155
g47
(dp156
g117
g17
sg75
g15
sg95
g15
sg52
g17
sg49
(dp157
g12
(dp158
g154
g17
sg14
g17
sg16
g17
sg139
g17
sg18
g17
sg147
g17
sg34
g17
sg26
g17
sg152
g17
sg27
g17
sg28
g17
sg136
g15
sssS' Ireland'
p159
g17
sg84
g17
sg50
g17
sg51
g15
sssg53
(dp160
g63
(dp161
g65
g17
sg66
(dp162
g128
(dp163
S' Unmarried'
p164
g17
sS' Not-in-family'
p165
g15
sssssg59
(dp166
g37
(dp167
g45
(dp168
g47
(dp169
g49
g17
sg76
g17
sg52
g17
sS' Ecuador'
p170
g17
sg110
g17
sg50
g15
sg51
g17
sssg3
(dp171
g12
(dp172
g14
g15
sg34
g17
sg147
g15
sg26
g17
sssssg67
g17
sg68
(dp173
g47
(dp174
S' Dominican-Republic'
p175
(dp176
g20
(dp177
g106
g15
sg25
g17
sssg114
g15
sg170
g17
sg95
g17
sS' Peru'
p178
g17
sg96
g17
sg83
g17
sS' Guatemala'
p179
g17
sg49
(dp180
g20
(dp181
g25
g17
sg22
g15
sg107
g17
sg23
g17
sS' Without-pay'
p182
g17
sg106
g15
sg24
g17
sg126
g17
sssg103
g15
sg88
g15
sg51
g17
sS' Nicaragua'
p183
g17
sssg91
(dp184
g47
(dp185
S' Columbia'
p186
g17
sg75
(dp187
g30
(dp188
S' 7th-8th'
p189
g17
sg145
g15
sssg95
(dp190
g20
(dp191
g25
g15
sg126
g17
sssg96
(dp192
g86
(dp193
g45
g15
sg3
g17
sssg179
(dp194
g20
(dp195
g25
g17
sg24
g15
sssg49
(dp196
g30
(dp197
g144
g15
sg189
g17
sS' 9th'
p198
g17
sS' 5th-6th'
p199
g17
sg145
g15
sS' 10th'
p200
g17
sS' 11th'
p201
g15
sg146
g15
sssg103
g17
sg50
g15
sg82
(dp202
g30
(dp203
g189
g15
sg146
g17
sssg111
(dp204
g12
(dp205
g28
g17
sg139
g15
sg154
g17
sg14
g15
sssg77
(dp206
g55
(dp207
g3
g15
sg45
g17
sssg88
g17
sg117
(dp208
g20
(dp209
g25
g17
sg126
g17
sg106
g15
sssS' Portugal'
p210
g17
sg52
(dp211
g86
(dp212
g3
g17
sg45
g15
sssg118
g17
sg110
g15
sg84
(dp213
g55
(dp214
g3
g15
sg45
g17
sssg51
(dp215
g37
(dp216
g3
g15
sg45
g17
sssg71
(dp217
g55
(dp218
g45
g17
sg3
g15
sssg76
(dp219
g30
(dp220
S' 1st-4th'
p221
g15
sg146
g17
sssS' Scotland'
p222
g15
sg81
g17
sg170
g15
sS' Laos'
p223
g17
sg159
g17
sssssssg45
(dp224
g8
(dp225
g10
(dp226
g5
(dp227
g45
(dp228
g37
(dp229
g45
(dp230
S'capital-loss'
p231
(dp232
g45
g17
sg3
g17
sssg3
(dp233
g231
(dp234
g45
g17
sg3
g17
sssssg3
(dp235
g231
(dp236
g45
(dp237
g30
(dp238
S' Prof-school'
p239
g15
sS' Assoc-voc'
p240
g17
sg33
g17
sg32
g17
sS' Bachelors'
p241
g17
sS' Doctorate'
p242
g15
sssg3
(dp243
g55
(dp244
g45
g15
sg3
g17
sssssssg35
(dp245
g37
(dp246
g45
(dp247
g5
(dp248
g45
(dp249
g47
(dp250
g94
g17
sg75
g17
sg95
g17
sg96
g17
sg179
g17
sg49
g17
sg103
g17
sS' Haiti'
p251
g17
sg50
g17
sg186
g17
sg175
g17
sg111
g17
sg77
g17
sS' Trinadad&Tobago'
p252
g17
sg88
g17
sg114
g17
sS' Honduras'
p253
g17
sg117
g17
sg210
g17
sg52
g17
sg118
g17
sg121
g17
sg84
g17
sg51
g17
sg183
g17
sg71
g17
sg76
g17
sg222
g17
sg78
g17
sg170
g17
sg178
g17
sg159
g17
sssg3
(dp254
g47
(dp255
g94
g17
sg75
g17
sg95
g17
sS' Outlying-US(Guam-USVI-etc)'
p256
g17
sg49
g17
sg103
g17
sg50
g17
sg186
g17
sg175
g17
sg111
g17
sg77
g17
sg114
g17
sg253
g17
sg117
g15
sg210
g17
sg52
g17
sg118
g17
sg110
g15
sg72
g17
sg51
g17
sg71
g17
sg78
g17
sg178
g17
sg159
g17
sssssg3
(dp257
g5
(dp258
g3
(dp259
g47
(dp260
g71
g17
sg94
g17
sg52
g15
sg96
g17
sg83
g15
sg51
g17
sg78
g17
sg49
g17
sS' Thailand'
p261
g17
sg251
g17
sg84
g15
sg50
g17
sg114
g15
sg186
g17
sssg45
(dp262
g47
(dp263
g71
g17
sg175
g17
sg52
g17
sg94
g17
sg117
g17
sg210
g17
sg95
g17
sg49
g17
sg111
g17
sg256
g17
sg78
g17
sg222
g17
sg103
g17
sg75
g17
sg51
g17
sg82
g17
sg178
g17
sg84
g17
sg50
g17
sg88
g17
sg114
g15
sssssssg53
(dp264
g231
(dp265
g45
(dp266
g55
(dp267
g3
(dp268
g47
(dp269
g94
g17
sg75
g17
sg95
g17
sg96
g17
sg179
g17
sg49
g17
sg103
g17
sg261
g17
sg251
g17
sg186
g17
sg175
g17
sg111
g17
sg77
g17
sg88
g17
sg114
g17
sg253
g17
sg117
g17
sg118
g17
sg83
g17
sg84
g15
sg51
g17
sg71
g17
sg76
g15
sg223
g17
sg159
g17
sssg45
(dp270
g37
(dp271
g45
g17
sg3
g17
sssssg3
(dp272
g37
(dp273
g3
(dp274
g12
(dp275
g26
g17
sg139
g15
sg147
g15
sg152
g17
sg14
g15
sssg45
g17
sssssg59
(dp276
g63
(dp277
g65
(dp278
g5
(dp279
g3
(dp280
g231
(dp281
g45
g17
sg3
g15
sssg45
(dp282
g231
(dp283
g45
g17
sg3
g17
sssssg66
(dp284
g47
(dp285
g186
g17
sg75
g17
sg95
g17
sg256
g17
sg96
g17
sg179
g17
sg49
(dp286
g231
(dp287
g45
g17
sg3
g17
sssg103
g17
sg261
g17
sg251
g17
sg50
g17
sg94
g17
sg110
g17
sg175
g17
sg111
(dp288
g5
(dp289
g45
g17
sg3
g15
sssg77
g17
sg114
g17
sg117
g17
sg210
g17
sg52
g17
sg118
g17
sg83
(dp290
g55
(dp291
g3
g15
sg45
g17
sssg82
g15
sg84
g17
sg51
(dp292
g20
(dp293
g25
g17
sg106
g15
sg126
g17
sg22
g17
sssg183
g17
sg71
g17
sg76
g17
sssssg67
(dp294
g40
(dp295
g44
(dp296
g30
(dp297
g32
g17
sg145
(dp298
g86
(dp299
g45
g17
sg3
g15
sssg240
g15
sg146
(dp300
g86
(dp301
g3
g17
sg45
g17
sssg241
g15
sssg43
g15
sssg68
(dp302
g5
(dp303
g3
(dp304
g55
(dp305
g45
(dp306
g37
(dp307
g45
g17
sg3
g17
sssg3
(dp308
g47
(dp309
g186
g17
sg75
g17
sg95
g17
sg256
g17
sg49
g17
sg103
g17
sg261
g17
sg50
g17
sg94
g17
sg175
g17
sg111
g17
sg77
g17
sg252
g17
sg88
g17
sg117
g17
sg210
g17
sg52
g17
sg83
g17
sg84
g15
sg51
g17
sg71
g17
sg76
g15
sg78
g17
sg178
g17
sssssg45
(dp310
g231
(dp311
g45
(dp312
g37
(dp313
g45
g17
sg3
g17
sssg3
(dp314
g55
(dp315
g45
g17
sg3
g17
sssssssg91
(dp316
g5
(dp317
g3
(dp318
g231
(dp319
g45
(dp320
g12
(dp321
S' Priv-house-serv'
p322
g17
sg14
g17
sg16
g17
sg139
g17
sg18
g15
sg147
g15
sg154
g17
sg26
g15
sg152
g17
sg153
g15
sg27
g17
sg28
g15
sg34
g17
sg136
g17
sssg3
(dp323
g47
(dp324
g82
g15
sS' Hong'
p325
g15
sg253
g15
sg117
g17
sg50
g15
sg95
g15
sg52
g15
sg77
g15
sg51
g15
sg83
g15
sg75
g15
sg251
g17
sg49
g15
sg103
g15
sg159
g15
sg84
g15
sg72
g15
sg114
g15
sg178
g15
sg94
g17
sssssg45
(dp326
g231
(dp327
g45
(dp328
g30
(dp329
g221
g17
sg144
g17
sg189
g17
sg198
g17
sg199
g17
sg145
g17
sg200
g17
sg201
g17
sg146
g17
sS' Preschool'
p330
g17
sssg3
(dp331
g47
(dp332
g71
g15
sg75
g15
sg117
g17
sg76
g15
sg95
g17
sg49
g15
sg111
g17
sg77
g15
sg96
g17
sg51
g15
sg82
g17
sg103
g17
sg251
g17
sg88
g17
sg183
g15
sg252
g15
sg114
g15
sg94
g15
ssssssssss.